target datalayout = "e-m:e-p270:32:32-p271:32:32-p272:64:64-i64:64-i128:128-f80:128-n8:16:32:64-S128"
target triple = "x86_64-pc-linux-gnu"

%struct.hm_fragment_st = type { %struct.hm_header_st, ptr, ptr }
%struct.hm_header_st = type { i8, i64, i16, i64, i64, i32, %struct.dtls1_retransmit_state }
%struct.dtls1_retransmit_state = type { ptr, ptr }

@.str = private unnamed_addr constant [36 x i8] c"../openssl/ssl/statem/statem_dtls.c\00", align 1

; Function Attrs: nounwind uwtable
define internal ptr @dtls1_hm_fragment_new(i64 noundef %0, i32 noundef %1) #0 {
  %3 = alloca ptr, align 8
  %4 = alloca i64, align 8
  %5 = alloca i32, align 4
  %6 = alloca ptr, align 8
  %7 = alloca ptr, align 8
  %8 = alloca ptr, align 8
  %9 = alloca i32, align 4
  store i64 %0, ptr %4, align 8, !tbaa !91
  store i32 %1, ptr %5, align 4, !tbaa !22
  call void @llvm.lifetime.start.p0(i64 8, ptr %6) #6
  store ptr null, ptr %6, align 8, !tbaa !3
  call void @llvm.lifetime.start.p0(i64 8, ptr %7) #6
  store ptr null, ptr %7, align 8, !tbaa !99
  call void @llvm.lifetime.start.p0(i64 8, ptr %8) #6
  store ptr null, ptr %8, align 8, !tbaa !99
  %10 = call noalias ptr @CRYPTO_zalloc(i64 noundef 80, ptr noundef @.str, i32 noundef 68)
  store ptr %10, ptr %6, align 8, !tbaa !3
  %11 = icmp eq ptr %10, null
  br i1 %11, label %12, label %13

12:                                               ; preds = %2
  store ptr null, ptr %3, align 8
  store i32 1, ptr %9, align 4
  br label %45

13:                                               ; preds = %2
  %14 = load i64, ptr %4, align 8, !tbaa !91
  %15 = icmp ne i64 %14, 0
  br i1 %15, label %16, label %23

16:                                               ; preds = %13
  %17 = load i64, ptr %4, align 8, !tbaa !91
  %18 = call noalias ptr @CRYPTO_malloc(i64 noundef %17, ptr noundef @.str, i32 noundef 72)
  store ptr %18, ptr %7, align 8, !tbaa !99
  %19 = icmp eq ptr %18, null
  br i1 %19, label %20, label %22

20:                                               ; preds = %16
  %21 = load ptr, ptr %6, align 8, !tbaa !3
  call void @CRYPTO_free(ptr noundef %21, ptr noundef @.str, i32 noundef 73)
  store ptr null, ptr %3, align 8
  store i32 1, ptr %9, align 4
  br label %45

22:                                               ; preds = %16
  br label %23

23:                                               ; preds = %22, %13
  %24 = load ptr, ptr %7, align 8, !tbaa !99
  %25 = load ptr, ptr %6, align 8, !tbaa !3
  %26 = getelementptr inbounds nuw %struct.hm_fragment_st, ptr %25, i32 0, i32 1
  store ptr %24, ptr %26, align 8, !tbaa !8
  %27 = load i32, ptr %5, align 4, !tbaa !22
  %28 = icmp ne i32 %27, 0
  br i1 %28, label %29, label %40

29:                                               ; preds = %23
  %30 = load i64, ptr %4, align 8, !tbaa !91
  %31 = add i64 %30, 7
  %32 = udiv i64 %31, 8
  %33 = call noalias ptr @CRYPTO_zalloc(i64 noundef %32, ptr noundef @.str, i32 noundef 83)
  store ptr %33, ptr %8, align 8, !tbaa !99
  %34 = load ptr, ptr %8, align 8, !tbaa !99
  %35 = icmp eq ptr %34, null
  br i1 %35, label %36, label %39

36:                                               ; preds = %29
  %37 = load ptr, ptr %7, align 8, !tbaa !99
  call void @CRYPTO_free(ptr noundef %37, ptr noundef @.str, i32 noundef 85)
  %38 = load ptr, ptr %6, align 8, !tbaa !3
  call void @CRYPTO_free(ptr noundef %38, ptr noundef @.str, i32 noundef 86)
  store ptr null, ptr %3, align 8
  store i32 1, ptr %9, align 4
  br label %45

39:                                               ; preds = %29
  br label %40

40:                                               ; preds = %39, %23
  %41 = load ptr, ptr %8, align 8, !tbaa !99
  %42 = load ptr, ptr %6, align 8, !tbaa !3
  %43 = getelementptr inbounds nuw %struct.hm_fragment_st, ptr %42, i32 0, i32 2
  store ptr %41, ptr %43, align 8, !tbaa !18
  %44 = load ptr, ptr %6, align 8, !tbaa !3
  store ptr %44, ptr %3, align 8
  store i32 1, ptr %9, align 4
  br label %45

45:                                               ; preds = %40, %36, %20, %12
  call void @llvm.lifetime.end.p0(i64 8, ptr %8) #6
  call void @llvm.lifetime.end.p0(i64 8, ptr %7) #6
  call void @llvm.lifetime.end.p0(i64 8, ptr %6) #6
  %46 = load ptr, ptr %3, align 8
  ret ptr %46
}