; Function Attrs: nounwind uwtable
define internal fastcc ptr @dtls1_hm_fragment_new(i64 noundef %0, i32 noundef range(i32 0, 2) %1) unnamed_addr #0 {
  %3 = tail call noalias ptr @CRYPTO_zalloc(i64 noundef 80, ptr noundef nonnull @.str, i32 noundef 68) #9
  %4 = icmp eq ptr %3, null
  br i1 %4, label %20, label %5

5:                                                ; preds = %2
  %.not = icmp eq i64 %0, 0
  br i1 %.not, label %10, label %6

6:                                                ; preds = %5
  %7 = tail call noalias ptr @CRYPTO_malloc(i64 noundef %0, ptr noundef nonnull @.str, i32 noundef 72) #9
  %8 = icmp eq ptr %7, null
  br i1 %8, label %9, label %10

9:                                                ; preds = %6
  tail call void @CRYPTO_free(ptr noundef nonnull %3, ptr noundef nonnull @.str, i32 noundef 73) #9
  br label %20

10:                                               ; preds = %6, %5
  %.013 = phi ptr [ %7, %6 ], [ null, %5 ]
  %11 = getelementptr inbounds nuw i8, ptr %3, i64 64
  store ptr %.013, ptr %11, align 8, !tbaa !3
  %.not19 = icmp eq i32 %1, 0
  br i1 %.not19, label %18, label %12

12:                                               ; preds = %10
  %13 = add i64 %0, 7
  %14 = lshr i64 %13, 3
  %15 = tail call noalias ptr @CRYPTO_zalloc(i64 noundef %14, ptr noundef nonnull @.str, i32 noundef 83) #9
  %16 = icmp eq ptr %15, null
  br i1 %16, label %17, label %18

17:                                               ; preds = %12
  tail call void @CRYPTO_free(ptr noundef %.013, ptr noundef nonnull @.str, i32 noundef 85) #9
  tail call void @CRYPTO_free(ptr noundef nonnull %3, ptr noundef nonnull @.str, i32 noundef 86) #9
  br label %20

18:                                               ; preds = %12, %10
  %.0 = phi ptr [ %15, %12 ], [ null, %10 ]
  %19 = getelementptr inbounds nuw i8, ptr %3, i64 72
  store ptr %.0, ptr %19, align 8, !tbaa !16
  br label %20

20:                                               ; preds = %2, %18, %17, %9
  %.014 = phi ptr [ null, %9 ], [ null, %17 ], [ %3, %18 ], [ null, %2 ]
  ret ptr %.014
}